target datalayout = "e-m:e-p270:32:32-p271:32:32-p272:64:64-i64:64-i128:128-f80:128-n8:16:32:64-S128"
target triple = "x86_64-pc-linux-gnu"

%struct.ExprEvalStep = type { i64, ptr, ptr, %union.anon }
%union.anon = type { %struct.anon.23 }
%struct.anon.23 = type { ptr, ptr, i32, i32, ptr, ptr }
%struct.anon.17 = type { i32, i32 }

@.str.1 = private unnamed_addr constant [17 x i8] c"execExprInterp.c\00", align 1
@.str.4 = private unnamed_addr constant [29 x i8] c"unsupported sequence type %u\00", align 1
@__func__.ExecEvalNextValueExpr = private unnamed_addr constant [22 x i8] c"ExecEvalNextValueExpr\00", align 1

; Function Attrs: inlinehint nounwind uwtable
define internal i64 @Int64GetDatum(i64 noundef %0) #2 {
  %2 = alloca i64, align 8
  store i64 %0, ptr %2, align 8
  %3 = load i64, ptr %2, align 8
  ret i64 %3
}

; Function Attrs: inlinehint nounwind uwtable
define internal i64 @Int32GetDatum(i32 noundef %0) #2 {
  %2 = alloca i32, align 4
  store i32 %0, ptr %2, align 4
  %3 = load i32, ptr %2, align 4
  %4 = sext i32 %3 to i64
  ret i64 %4
}

; Function Attrs: inlinehint nounwind uwtable
define internal i64 @Int16GetDatum(i16 noundef signext %0) #2 {
  %2 = alloca i16, align 2
  store i16 %0, ptr %2, align 2
  %3 = load i16, ptr %2, align 2
  %4 = sext i16 %3 to i64
  ret i64 %4
}

; Function Attrs: nounwind uwtable
define dso_local void @ExecEvalNextValueExpr(ptr noundef %0, ptr noundef %1) #0 {
  %3 = alloca ptr, align 8
  %4 = alloca ptr, align 8
  %5 = alloca i64, align 8
  store ptr %0, ptr %3, align 8
  store ptr %1, ptr %4, align 8
  call void @llvm.lifetime.start.p0(i64 8, ptr %5) #11
  %6 = load ptr, ptr %4, align 8
  %7 = getelementptr inbounds nuw %struct.ExprEvalStep, ptr %6, i32 0, i32 3
  %8 = getelementptr inbounds nuw %struct.anon.17, ptr %7, i32 0, i32 0
  %9 = load i32, ptr %8, align 8
  %10 = call i64 @nextval_internal(i32 noundef %9, i1 noundef zeroext false)
  store i64 %10, ptr %5, align 8
  %11 = load ptr, ptr %4, align 8
  %12 = getelementptr inbounds nuw %struct.ExprEvalStep, ptr %11, i32 0, i32 3
  %13 = getelementptr inbounds nuw %struct.anon.17, ptr %12, i32 0, i32 1
  %14 = load i32, ptr %13, align 4
  switch i32 %14, label %35 [
    i32 21, label %15
    i32 23, label %22
    i32 20, label %29
  ]

15:                                               ; preds = %2
  %16 = load i64, ptr %5, align 8
  %17 = trunc i64 %16 to i16
  %18 = call i64 @Int16GetDatum(i16 noundef signext %17)
  %19 = load ptr, ptr %4, align 8
  %20 = getelementptr inbounds nuw %struct.ExprEvalStep, ptr %19, i32 0, i32 1
  %21 = load ptr, ptr %20, align 8
  store i64 %18, ptr %21, align 8
  br label %50

22:                                               ; preds = %2
  %23 = load i64, ptr %5, align 8
  %24 = trunc i64 %23 to i32
  %25 = call i64 @Int32GetDatum(i32 noundef %24)
  %26 = load ptr, ptr %4, align 8
  %27 = getelementptr inbounds nuw %struct.ExprEvalStep, ptr %26, i32 0, i32 1
  %28 = load ptr, ptr %27, align 8
  store i64 %25, ptr %28, align 8
  br label %50

29:                                               ; preds = %2
  %30 = load i64, ptr %5, align 8
  %31 = call i64 @Int64GetDatum(i64 noundef %30)
  %32 = load ptr, ptr %4, align 8
  %33 = getelementptr inbounds nuw %struct.ExprEvalStep, ptr %32, i32 0, i32 1
  %34 = load ptr, ptr %33, align 8
  store i64 %31, ptr %34, align 8
  br label %50

35:                                               ; preds = %2
  br label %36

36:                                               ; preds = %35
  br i1 true, label %37, label %39

37:                                               ; preds = %36
  %38 = call zeroext i1 @errstart_cold(i32 noundef 21, ptr noundef null) #12
  br i1 %38, label %41, label %47

39:                                               ; preds = %36
  %40 = call zeroext i1 @errstart(i32 noundef 21, ptr noundef null)
  br i1 %40, label %41, label %47

41:                                               ; preds = %39, %37
  %42 = load ptr, ptr %4, align 8
  %43 = getelementptr inbounds nuw %struct.ExprEvalStep, ptr %42, i32 0, i32 3
  %44 = getelementptr inbounds nuw %struct.anon.17, ptr %43, i32 0, i32 1
  %45 = load i32, ptr %44, align 4
  %46 = call i32 (ptr, ...) @errmsg_internal(ptr noundef @.str.4, i32 noundef %45)
  call void @errfinish(ptr noundef @.str.1, i32 noundef 3209, ptr noundef @__func__.ExecEvalNextValueExpr)
  br label %47

47:                                               ; preds = %41, %39, %37
  unreachable

48:                                               ; No predecessors!
  br label %49

49:                                               ; preds = %48
  br label %50

50:                                               ; preds = %49, %29, %22, %15
  %51 = load ptr, ptr %4, align 8
  %52 = getelementptr inbounds nuw %struct.ExprEvalStep, ptr %51, i32 0, i32 2
  %53 = load ptr, ptr %52, align 8
  store i8 0, ptr %53, align 1
  call void @llvm.lifetime.end.p0(i64 8, ptr %5) #11
  ret void
}