; Function Attrs: nounwind uwtable
define dso_local void @ExecEvalNextValueExpr(ptr noundef readnone captures(none) %0, ptr noundef readonly captures(none) %1) local_unnamed_addr #0 {
  %3 = getelementptr inbounds nuw i8, ptr %1, i64 24
  %4 = load i32, ptr %3, align 8
  %5 = tail call i64 @nextval_internal(i32 noundef %4, i1 noundef zeroext false) #18
  %6 = getelementptr inbounds nuw i8, ptr %1, i64 28
  %7 = load i32, ptr %6, align 4
  switch i32 %7, label %12 [
    i32 21, label %8
    i32 23, label %10
    i32 20, label %16
  ]

8:                                                ; preds = %2
  %sext9 = shl i64 %5, 48
  %9 = ashr exact i64 %sext9, 48
  br label %16

10:                                               ; preds = %2
  %sext = shl i64 %5, 32
  %11 = ashr exact i64 %sext, 32
  br label %16

12:                                               ; preds = %2
  %13 = tail call zeroext i1 @errstart_cold(i32 noundef 21, ptr noundef null) #19
  tail call void @llvm.assume(i1 %13)
  %14 = load i32, ptr %6, align 4
  %15 = tail call i32 (ptr, ...) @errmsg_internal(ptr noundef nonnull @.str.4, i32 noundef %14) #18
  tail call void @errfinish(ptr noundef nonnull @.str.1, i32 noundef 3209, ptr noundef nonnull @__func__.ExecEvalNextValueExpr) #18
  unreachable

16:                                               ; preds = %2, %10, %8
  %.sink = phi i64 [ %11, %10 ], [ %9, %8 ], [ %5, %2 ]
  %17 = getelementptr inbounds nuw i8, ptr %1, i64 8
  %18 = load ptr, ptr %17, align 8
  store i64 %.sink, ptr %18, align 8
  %19 = getelementptr inbounds nuw i8, ptr %1, i64 16
  %20 = load ptr, ptr %19, align 8
  store i8 0, ptr %20, align 1
  ret void
}